; ModuleID = '5/435.c'
source_filename = "5/435.c"
target datalayout = "e-m:e-p270:32:32-p271:32:32-p272:64:64-i64:64-f80:128-n8:16:32:64-S128"
target triple = "x86_64-pc-linux-gnu"

@.str = private unnamed_addr constant [4 x i8] c"%lf\00", align 1
@.str.1 = private unnamed_addr constant [3 x i8] c"%s\00", align 1
@.str.2 = private unnamed_addr constant [6 x i8] c"error\00", align 1
@.str.3 = private unnamed_addr constant [3 x i8] c"no\00", align 1
@.str.4 = private unnamed_addr constant [4 x i8] c"yes\00", align 1

; Function Attrs: noinline nounwind uwtable
define dso_local i32 @main() #0 {
  %1 = alloca i32, align 4
  %2 = alloca i32, align 4
  %3 = alloca i32, align 4
  %4 = alloca i32, align 4
  %5 = alloca i32, align 4
  %6 = alloca i32, align 4
  %7 = alloca i32, align 4
  %8 = alloca [2 x [500 x i8]], align 16
  %9 = alloca double, align 8
  store i32 0, i32* %1, align 4
  store i32 0, i32* %2, align 4
  store i32 0, i32* %3, align 4
  store i32 0, i32* %5, align 4
  store i32 0, i32* %6, align 4
  store i32 0, i32* %7, align 4
  %10 = call i32 (i8*, ...) @__isoc99_scanf(i8* getelementptr inbounds ([4 x i8], [4 x i8]* @.str, i64 0, i64 0), double* %9)
  store i32 0, i32* %4, align 4
  br label %11

11:                                               ; preds = %20, %0
  %12 = load i32, i32* %4, align 4
  %13 = icmp slt i32 %12, 2
  br i1 %13, label %14, label %23

14:                                               ; preds = %11
  %15 = load i32, i32* %4, align 4
  %16 = sext i32 %15 to i64
  %17 = getelementptr inbounds [2 x [500 x i8]], [2 x [500 x i8]]* %8, i64 0, i64 %16
  %18 = getelementptr inbounds [500 x i8], [500 x i8]* %17, i64 0, i64 0
  %19 = call i32 (i8*, ...) @__isoc99_scanf(i8* getelementptr inbounds ([3 x i8], [3 x i8]* @.str.1, i64 0, i64 0), i8* %18)
  br label %20

20:                                               ; preds = %14
  %21 = load i32, i32* %4, align 4
  %22 = add nsw i32 %21, 1
  store i32 %22, i32* %4, align 4
  br label %11

23:                                               ; preds = %11
  store i32 0, i32* %4, align 4
  br label %24

24:                                               ; preds = %35, %23
  %25 = getelementptr inbounds [2 x [500 x i8]], [2 x [500 x i8]]* %8, i64 0, i64 0
  %26 = load i32, i32* %4, align 4
  %27 = sext i32 %26 to i64
  %28 = getelementptr inbounds [500 x i8], [500 x i8]* %25, i64 0, i64 %27
  %29 = load i8, i8* %28, align 1
  %30 = sext i8 %29 to i32
  %31 = icmp ne i32 %30, 0
  br i1 %31, label %32, label %38

32:                                               ; preds = %24
  %33 = load i32, i32* %5, align 4
  %34 = add nsw i32 %33, 1
  store i32 %34, i32* %5, align 4
  br label %35

35:                                               ; preds = %32
  %36 = load i32, i32* %4, align 4
  %37 = add nsw i32 %36, 1
  store i32 %37, i32* %4, align 4
  br label %24

38:                                               ; preds = %24
  store i32 0, i32* %4, align 4
  br label %39

39:                                               ; preds = %50, %38
  %40 = getelementptr inbounds [2 x [500 x i8]], [2 x [500 x i8]]* %8, i64 0, i64 1
  %41 = load i32, i32* %4, align 4
  %42 = sext i32 %41 to i64
  %43 = getelementptr inbounds [500 x i8], [500 x i8]* %40, i64 0, i64 %42
  %44 = load i8, i8* %43, align 1
  %45 = sext i8 %44 to i32
  %46 = icmp ne i32 %45, 0
  br i1 %46, label %47, label %53

47:                                               ; preds = %39
  %48 = load i32, i32* %6, align 4
  %49 = add nsw i32 %48, 1
  store i32 %49, i32* %6, align 4
  br label %50

50:                                               ; preds = %47
  %51 = load i32, i32* %4, align 4
  %52 = add nsw i32 %51, 1
  store i32 %52, i32* %4, align 4
  br label %39

53:                                               ; preds = %39
  store i32 0, i32* %4, align 4
  br label %54

54:                                               ; preds = %107, %53
  %55 = getelementptr inbounds [2 x [500 x i8]], [2 x [500 x i8]]* %8, i64 0, i64 0
  %56 = load i32, i32* %4, align 4
  %57 = sext i32 %56 to i64
  %58 = getelementptr inbounds [500 x i8], [500 x i8]* %55, i64 0, i64 %57
  %59 = load i8, i8* %58, align 1
  %60 = sext i8 %59 to i32
  %61 = icmp ne i32 %60, 0
  br i1 %61, label %62, label %70

62:                                               ; preds = %54
  %63 = getelementptr inbounds [2 x [500 x i8]], [2 x [500 x i8]]* %8, i64 0, i64 1
  %64 = load i32, i32* %4, align 4
  %65 = sext i32 %64 to i64
  %66 = getelementptr inbounds [500 x i8], [500 x i8]* %63, i64 0, i64 %65
  %67 = load i8, i8* %66, align 1
  %68 = sext i8 %67 to i32
  %69 = icmp ne i32 %68, 0
  br label %70

70:                                               ; preds = %62, %54
  %71 = phi i1 [ false, %54 ], [ %69, %62 ]
  br i1 %71, label %72, label %110

72:                                               ; preds = %70
  %73 = getelementptr inbounds [2 x [500 x i8]], [2 x [500 x i8]]* %8, i64 0, i64 0
  %74 = load i32, i32* %4, align 4
  %75 = sext i32 %74 to i64
  %76 = getelementptr inbounds [500 x i8], [500 x i8]* %73, i64 0, i64 %75
  %77 = load i8, i8* %76, align 1
  %78 = sext i8 %77 to i32
  %79 = icmp slt i32 %78, 65
  br i1 %79, label %104, label %80

80:                                               ; preds = %72
  %81 = getelementptr inbounds [2 x [500 x i8]], [2 x [500 x i8]]* %8, i64 0, i64 0
  %82 = load i32, i32* %4, align 4
  %83 = sext i32 %82 to i64
  %84 = getelementptr inbounds [500 x i8], [500 x i8]* %81, i64 0, i64 %83
  %85 = load i8, i8* %84, align 1
  %86 = sext i8 %85 to i32
  %87 = icmp sgt i32 %86, 90
  br i1 %87, label %104, label %88

88:                                               ; preds = %80
  %89 = getelementptr inbounds [2 x [500 x i8]], [2 x [500 x i8]]* %8, i64 0, i64 1
  %90 = load i32, i32* %4, align 4
  %91 = sext i32 %90 to i64
  %92 = getelementptr inbounds [500 x i8], [500 x i8]* %89, i64 0, i64 %91
  %93 = load i8, i8* %92, align 1
  %94 = sext i8 %93 to i32
  %95 = icmp slt i32 %94, 65
  br i1 %95, label %104, label %96

96:                                               ; preds = %88
  %97 = getelementptr inbounds [2 x [500 x i8]], [2 x [500 x i8]]* %8, i64 0, i64 1
  %98 = load i32, i32* %4, align 4
  %99 = sext i32 %98 to i64
  %100 = getelementptr inbounds [500 x i8], [500 x i8]* %97, i64 0, i64 %99
  %101 = load i8, i8* %100, align 1
  %102 = sext i8 %101 to i32
  %103 = icmp sgt i32 %102, 90
  br i1 %103, label %104, label %106

104:                                              ; preds = %96, %88, %80, %72
  %105 = call i32 (i8*, ...) @printf(i8* getelementptr inbounds ([6 x i8], [6 x i8]* @.str.2, i64 0, i64 0))
  store i32 1, i32* %7, align 4
  br label %110

106:                                              ; preds = %96
  br label %107

107:                                              ; preds = %106
  %108 = load i32, i32* %4, align 4
  %109 = add nsw i32 %108, 1
  store i32 %109, i32* %4, align 4
  br label %54

110:                                              ; preds = %104, %70
  %111 = load i32, i32* %7, align 4
  %112 = icmp eq i32 %111, 0
  br i1 %112, label %113, label %176

113:                                              ; preds = %110
  %114 = load i32, i32* %5, align 4
  %115 = load i32, i32* %6, align 4
  %116 = icmp ne i32 %114, %115
  br i1 %116, label %117, label %119

117:                                              ; preds = %113
  %118 = call i32 (i8*, ...) @printf(i8* getelementptr inbounds ([6 x i8], [6 x i8]* @.str.2, i64 0, i64 0))
  br label %175

119:                                              ; preds = %113
  store i32 0, i32* %4, align 4
  br label %120

120:                                              ; preds = %158, %119
  %121 = getelementptr inbounds [2 x [500 x i8]], [2 x [500 x i8]]* %8, i64 0, i64 0
  %122 = load i32, i32* %4, align 4
  %123 = sext i32 %122 to i64
  %124 = getelementptr inbounds [500 x i8], [500 x i8]* %121, i64 0, i64 %123
  %125 = load i8, i8* %124, align 1
  %126 = sext i8 %125 to i32
  %127 = icmp ne i32 %126, 0
  br i1 %127, label %128, label %136

128:                                              ; preds = %120
  %129 = getelementptr inbounds [2 x [500 x i8]], [2 x [500 x i8]]* %8, i64 0, i64 1
  %130 = load i32, i32* %4, align 4
  %131 = sext i32 %130 to i64
  %132 = getelementptr inbounds [500 x i8], [500 x i8]* %129, i64 0, i64 %131
  %133 = load i8, i8* %132, align 1
  %134 = sext i8 %133 to i32
  %135 = icmp ne i32 %134, 0
  br label %136

136:                                              ; preds = %128, %120
  %137 = phi i1 [ false, %120 ], [ %135, %128 ]
  br i1 %137, label %138, label %161

138:                                              ; preds = %136
  %139 = load i32, i32* %3, align 4
  %140 = add nsw i32 %139, 1
  store i32 %140, i32* %3, align 4
  %141 = getelementptr inbounds [2 x [500 x i8]], [2 x [500 x i8]]* %8, i64 0, i64 0
  %142 = load i32, i32* %4, align 4
  %143 = sext i32 %142 to i64
  %144 = getelementptr inbounds [500 x i8], [500 x i8]* %141, i64 0, i64 %143
  %145 = load i8, i8* %144, align 1
  %146 = sext i8 %145 to i32
  %147 = getelementptr inbounds [2 x [500 x i8]], [2 x [500 x i8]]* %8, i64 0, i64 1
  %148 = load i32, i32* %4, align 4
  %149 = sext i32 %148 to i64
  %150 = getelementptr inbounds [500 x i8], [500 x i8]* %147, i64 0, i64 %149
  %151 = load i8, i8* %150, align 1
  %152 = sext i8 %151 to i32
  %153 = icmp eq i32 %146, %152
  br i1 %153, label %154, label %157

154:                                              ; preds = %138
  %155 = load i32, i32* %2, align 4
  %156 = add nsw i32 %155, 1
  store i32 %156, i32* %2, align 4
  br label %157

157:                                              ; preds = %154, %138
  br label %158

158:                                              ; preds = %157
  %159 = load i32, i32* %4, align 4
  %160 = add nsw i32 %159, 1
  store i32 %160, i32* %4, align 4
  br label %120

161:                                              ; preds = %136
  %162 = load i32, i32* %2, align 4
  %163 = sitofp i32 %162 to double
  %164 = fmul double 1.000000e+00, %163
  %165 = load i32, i32* %3, align 4
  %166 = sitofp i32 %165 to double
  %167 = fdiv double %164, %166
  %168 = load double, double* %9, align 8
  %169 = fcmp ole double %167, %168
  br i1 %169, label %170, label %172

170:                                              ; preds = %161
  %171 = call i32 (i8*, ...) @printf(i8* getelementptr inbounds ([3 x i8], [3 x i8]* @.str.3, i64 0, i64 0))
  br label %174

172:                                              ; preds = %161
  %173 = call i32 (i8*, ...) @printf(i8* getelementptr inbounds ([4 x i8], [4 x i8]* @.str.4, i64 0, i64 0))
  br label %174

174:                                              ; preds = %172, %170
  br label %175

175:                                              ; preds = %174, %117
  br label %176

176:                                              ; preds = %175, %110
  ret i32 0
}

declare dso_local i32 @__isoc99_scanf(i8*, ...) #1

declare dso_local i32 @printf(i8*, ...) #1


!llvm.module.flags = !{!0}
!llvm.ident = !{!1}

!0 = !{i32 1, !"wchar_size", i32 4}
!1 = !{!"clang version 10.0.0-4ubuntu1 "}
